target datalayout = "e-m:e-p270:32:32-p271:32:32-p272:64:64-i64:64-i128:128-f80:128-n8:16:32:64-S128"
target triple = "x86_64-pc-linux-gnu"

@Dau_DsdPerformReplace.pTemp = internal global [2000 x i8] zeroinitializer, align 16

; Function Attrs: inlinehint nounwind uwtable
define internal i32 @Dau_DsdPerformReplace(ptr noundef %0, i32 noundef %1, i32 noundef %2, i32 noundef %3, ptr noundef %4) #2 {
  %6 = alloca ptr, align 8
  %7 = alloca i32, align 4
  %8 = alloca i32, align 4
  %9 = alloca i32, align 4
  %10 = alloca ptr, align 8
  %11 = alloca ptr, align 8
  %12 = alloca i32, align 4
  %13 = alloca i32, align 4
  %14 = alloca i32, align 4
  store ptr %0, ptr %6, align 8, !tbaa !3
  store i32 %1, ptr %7, align 4, !tbaa !8
  store i32 %2, ptr %8, align 4, !tbaa !8
  store i32 %3, ptr %9, align 4, !tbaa !8
  store ptr %4, ptr %10, align 8, !tbaa !3
  call void @llvm.lifetime.start.p0(i64 8, ptr %11) #9
  store ptr @Dau_DsdPerformReplace.pTemp, ptr %11, align 8, !tbaa !3
  call void @llvm.lifetime.start.p0(i64 4, ptr %12) #9
  call void @llvm.lifetime.start.p0(i64 4, ptr %13) #9
  call void @llvm.lifetime.start.p0(i64 4, ptr %14) #9
  %15 = load i32, ptr %7, align 4, !tbaa !8
  store i32 %15, ptr %12, align 4, !tbaa !8
  br label %16

16:                                               ; preds = %58, %5
  %17 = load i32, ptr %12, align 4, !tbaa !8
  %18 = load i32, ptr %8, align 4, !tbaa !8
  %19 = icmp slt i32 %17, %18
  br i1 %19, label %20, label %61

20:                                               ; preds = %16
  %21 = load ptr, ptr %6, align 8, !tbaa !3
  %22 = load i32, ptr %12, align 4, !tbaa !8
  %23 = sext i32 %22 to i64
  %24 = getelementptr inbounds i8, ptr %21, i64 %23
  %25 = load i8, ptr %24, align 1, !tbaa !10
  %26 = sext i8 %25 to i32
  %27 = load i32, ptr %9, align 4, !tbaa !8
  %28 = icmp ne i32 %26, %27
  br i1 %28, label %29, label %37

29:                                               ; preds = %20
  %30 = load ptr, ptr %6, align 8, !tbaa !3
  %31 = load i32, ptr %12, align 4, !tbaa !8
  %32 = sext i32 %31 to i64
  %33 = getelementptr inbounds i8, ptr %30, i64 %32
  %34 = load i8, ptr %33, align 1, !tbaa !10
  %35 = load ptr, ptr %11, align 8, !tbaa !3
  %36 = getelementptr inbounds nuw i8, ptr %35, i32 1
  store ptr %36, ptr %11, align 8, !tbaa !3
  store i8 %34, ptr %35, align 1, !tbaa !10
  br label %57

37:                                               ; preds = %20
  store i32 0, ptr %13, align 4, !tbaa !8
  br label %38

38:                                               ; preds = %53, %37
  %39 = load ptr, ptr %10, align 8, !tbaa !3
  %40 = load i32, ptr %13, align 4, !tbaa !8
  %41 = sext i32 %40 to i64
  %42 = getelementptr inbounds i8, ptr %39, i64 %41
  %43 = load i8, ptr %42, align 1, !tbaa !10
  %44 = icmp ne i8 %43, 0
  br i1 %44, label %45, label %56

45:                                               ; preds = %38
  %46 = load ptr, ptr %10, align 8, !tbaa !3
  %47 = load i32, ptr %13, align 4, !tbaa !8
  %48 = sext i32 %47 to i64
  %49 = getelementptr inbounds i8, ptr %46, i64 %48
  %50 = load i8, ptr %49, align 1, !tbaa !10
  %51 = load ptr, ptr %11, align 8, !tbaa !3
  %52 = getelementptr inbounds nuw i8, ptr %51, i32 1
  store ptr %52, ptr %11, align 8, !tbaa !3
  store i8 %50, ptr %51, align 1, !tbaa !10
  br label %53

53:                                               ; preds = %45
  %54 = load i32, ptr %13, align 4, !tbaa !8
  %55 = add nsw i32 %54, 1
  store i32 %55, ptr %13, align 4, !tbaa !8
  br label %38, !llvm.loop !73

56:                                               ; preds = %38
  br label %57

57:                                               ; preds = %56, %29
  br label %58

58:                                               ; preds = %57
  %59 = load i32, ptr %12, align 4, !tbaa !8
  %60 = add nsw i32 %59, 1
  store i32 %60, ptr %12, align 4, !tbaa !8
  br label %16, !llvm.loop !74

61:                                               ; preds = %16
  %62 = load i32, ptr %7, align 4, !tbaa !8
  %63 = sext i32 %62 to i64
  %64 = load ptr, ptr %11, align 8, !tbaa !3
  %65 = ptrtoint ptr %64 to i64
  %66 = sub i64 %65, ptrtoint (ptr @Dau_DsdPerformReplace.pTemp to i64)
  %67 = add nsw i64 %63, %66
  %68 = trunc i64 %67 to i32
  store i32 %68, ptr %14, align 4, !tbaa !8
  %69 = load i32, ptr %7, align 4, !tbaa !8
  store i32 %69, ptr %12, align 4, !tbaa !8
  br label %70

70:                                               ; preds = %85, %61
  %71 = load i32, ptr %12, align 4, !tbaa !8
  %72 = load i32, ptr %14, align 4, !tbaa !8
  %73 = icmp slt i32 %71, %72
  br i1 %73, label %74, label %88

74:                                               ; preds = %70
  %75 = load i32, ptr %12, align 4, !tbaa !8
  %76 = load i32, ptr %7, align 4, !tbaa !8
  %77 = sub nsw i32 %75, %76
  %78 = sext i32 %77 to i64
  %79 = getelementptr inbounds [2000 x i8], ptr @Dau_DsdPerformReplace.pTemp, i64 0, i64 %78
  %80 = load i8, ptr %79, align 1, !tbaa !10
  %81 = load ptr, ptr %6, align 8, !tbaa !3
  %82 = load i32, ptr %12, align 4, !tbaa !8
  %83 = sext i32 %82 to i64
  %84 = getelementptr inbounds i8, ptr %81, i64 %83
  store i8 %80, ptr %84, align 1, !tbaa !10
  br label %85

85:                                               ; preds = %74
  %86 = load i32, ptr %12, align 4, !tbaa !8
  %87 = add nsw i32 %86, 1
  store i32 %87, ptr %12, align 4, !tbaa !8
  br label %70, !llvm.loop !75

88:                                               ; preds = %70
  %89 = load i32, ptr %14, align 4, !tbaa !8
  call void @llvm.lifetime.end.p0(i64 4, ptr %14) #9
  call void @llvm.lifetime.end.p0(i64 4, ptr %13) #9
  call void @llvm.lifetime.end.p0(i64 4, ptr %12) #9
  call void @llvm.lifetime.end.p0(i64 8, ptr %11) #9
  ret i32 %89
}