; Function Attrs: inlinehint nofree norecurse nosync nounwind memory(readwrite, inaccessiblemem: none) uwtable
define internal fastcc i32 @Dau_DsdPerformReplace(ptr noundef captures(none) %0, i32 noundef %1, i32 noundef %2, i32 noundef range(i32 -2147483551, -2147483648) %3, ptr noundef nonnull readonly captures(none) %4) unnamed_addr #15 {
  %6 = icmp slt i32 %1, %2
  br i1 %6, label %.lr.ph37.preheader, label %._crit_edge

.lr.ph37.preheader:                               ; preds = %5
  %7 = sext i32 %1 to i64
  %wide.trip.count = sext i32 %2 to i64
  br label %.lr.ph37

.lr.ph37:                                         ; preds = %.lr.ph37.preheader, %.loopexit
  %indvars.iv43 = phi i64 [ %7, %.lr.ph37.preheader ], [ %indvars.iv.next44, %.loopexit ]
  %.036 = phi ptr [ @Dau_DsdPerformReplace.pTemp, %.lr.ph37.preheader ], [ %.2, %.loopexit ]
  %8 = getelementptr inbounds i8, ptr %0, i64 %indvars.iv43
  %9 = load i8, ptr %8, align 1, !tbaa !3
  %10 = sext i8 %9 to i32
  %.not = icmp eq i32 %3, %10
  br i1 %.not, label %.preheader, label %12

.preheader:                                       ; preds = %.lr.ph37
  %11 = load i8, ptr %4, align 1, !tbaa !3
  %.not3132 = icmp eq i8 %11, 0
  br i1 %.not3132, label %.loopexit, label %.lr.ph

12:                                               ; preds = %.lr.ph37
  %13 = getelementptr inbounds nuw i8, ptr %.036, i64 1
  store i8 %9, ptr %.036, align 1, !tbaa !3
  br label %.loopexit

.lr.ph:                                           ; preds = %.preheader, %.lr.ph
  %indvars.iv = phi i64 [ %indvars.iv.next, %.lr.ph ], [ 0, %.preheader ]
  %14 = phi i8 [ %17, %.lr.ph ], [ %11, %.preheader ]
  %.134 = phi ptr [ %15, %.lr.ph ], [ %.036, %.preheader ]
  %15 = getelementptr inbounds nuw i8, ptr %.134, i64 1
  store i8 %14, ptr %.134, align 1, !tbaa !3
  %indvars.iv.next = add nuw nsw i64 %indvars.iv, 1
  %16 = getelementptr inbounds nuw i8, ptr %4, i64 %indvars.iv.next
  %17 = load i8, ptr %16, align 1, !tbaa !3
  %.not31 = icmp eq i8 %17, 0
  br i1 %.not31, label %.loopexit, label %.lr.ph, !llvm.loop !64

.loopexit:                                        ; preds = %.lr.ph, %.preheader, %12
  %.2 = phi ptr [ %13, %12 ], [ %.036, %.preheader ], [ %15, %.lr.ph ]
  %indvars.iv.next44 = add nsw i64 %indvars.iv43, 1
  %exitcond.not = icmp eq i64 %indvars.iv.next44, %wide.trip.count
  br i1 %exitcond.not, label %._crit_edge, label %.lr.ph37, !llvm.loop !65

._crit_edge:                                      ; preds = %.loopexit, %5
  %.0.lcssa = phi ptr [ @Dau_DsdPerformReplace.pTemp, %5 ], [ %.2, %.loopexit ]
  %18 = ptrtoint ptr %.0.lcssa to i64
  %19 = trunc i64 %18 to i32
  %20 = sub i32 %19, ptrtoint (ptr @Dau_DsdPerformReplace.pTemp to i32)
  %21 = add i32 %20, %1
  %22 = icmp slt i32 %1, %21
  br i1 %22, label %.lr.ph41.preheader, label %._crit_edge42

.lr.ph41.preheader:                               ; preds = %._crit_edge
  %23 = sext i32 %1 to i64
  %wide.trip.count49 = sext i32 %21 to i64
  br label %.lr.ph41

.lr.ph41:                                         ; preds = %.lr.ph41.preheader, %.lr.ph41
  %indvars.iv46 = phi i64 [ %23, %.lr.ph41.preheader ], [ %indvars.iv.next47, %.lr.ph41 ]
  %24 = sub nsw i64 %indvars.iv46, %23
  %25 = getelementptr inbounds [2000 x i8], ptr @Dau_DsdPerformReplace.pTemp, i64 0, i64 %24
  %26 = load i8, ptr %25, align 1, !tbaa !3
  %27 = getelementptr inbounds i8, ptr %0, i64 %indvars.iv46
  store i8 %26, ptr %27, align 1, !tbaa !3
  %indvars.iv.next47 = add nsw i64 %indvars.iv46, 1
  %exitcond50.not = icmp eq i64 %indvars.iv.next47, %wide.trip.count49
  br i1 %exitcond50.not, label %._crit_edge42, label %.lr.ph41, !llvm.loop !66

._crit_edge42:                                    ; preds = %.lr.ph41, %._crit_edge
  ret i32 %21
}